; Function Attrs: mustprogress nounwind uwtable
define noundef zeroext i1 @_ZN5arrow8internal13StringToFloatEPKcmcPf(ptr noundef %s, i64 noundef %length, i8 noundef signext %decimal_point, ptr noundef nonnull %out) local_unnamed_addr #0 {
entry:
  %add.ptr = getelementptr inbounds i8, ptr %s, i64 %length
  %options.sroa.2.0.insert.ext = zext i8 %decimal_point to i64
  %options.sroa.2.0.insert.shift = shl nuw nsw i64 %options.sroa.2.0.insert.ext, 32
  %options.sroa.0.0.insert.insert = or disjoint i64 %options.sroa.2.0.insert.shift, 5
  %call = tail call { ptr, i32 } @_ZN14arrow_vendored10fast_float19from_chars_advancedIfEENS0_17from_chars_resultEPKcS4_RT_NS0_13parse_optionsE(ptr noundef %s, ptr noundef %add.ptr, ptr noundef nonnull align 4 dereferenceable(4) %out, i64 %options.sroa.0.0.insert.insert) #16
  %0 = extractvalue { ptr, i32 } %call, 0
  %1 = extractvalue { ptr, i32 } %call, 1
  %cmp = icmp eq i32 %1, 0
  %cmp2 = icmp eq ptr %0, %add.ptr
  %2 = select i1 %cmp, i1 %cmp2, i1 false
  ret i1 %2
}